Certificate:
    Data:
        Version: 3 (0x2)
        Serial Number: 2 (0x2)
        Signature Algorithm: sha256WithRSAEncryption
        Issuer: C=US, ST=Nevada, L=Las Vegas, O=github.com/lib/pq, CN=pq CA
        Validity
            Not Before: Oct 11 15:10:11 2014 GMT
            Not After : Oct  8 15:10:11 2024 GMT
        Subject: C=US, ST=Nevada, L=Las Vegas, O=github.com/lib/pq, CN=pqgosslcert
        Subject Public Key Info:
            Public Key Algorithm: rsaEncryption
            RSA Public Key: (1024 bit)
                Modulus (1024 bit):
                    00:e3:8c:06:9a:70:54:51:d1:34:34:83:39:cd:a2:
                    59:0f:05:ed:8d:d8:0e:34:d0:92:f4:09:4d:ee:8c:
                    78:55:49:24:f8:3c:e0:34:58:02:b2:e7:94:58:c1:
                    e8:e5:bb:d1:af:f6:54:c1:40:b1:90:70:79:0d:35:
                    54:9c:8f:16:e9:c2:f0:92:e6:64:49:38:c1:76:f8:
                    47:66:c4:5b:4a:b6:a9:43:ce:c8:be:6c:4d:2b:94:
                    97:3c:55:bc:d1:d0:6e:b7:53:ae:89:5c:4b:6b:86:
                    40:be:c1:ae:1e:64:ce:9c:ae:87:0a:69:e5:c8:21:
                    12:be:ae:1d:f6:45:df:16:a7
                Exponent: 65537 (0x10001)
        X509v3 extensions:
            X509v3 Subject Key Identifier: 
                9B:25:31:63:A2:D8:06:FF:CB:E3:E9:96:FF:0D:BA:DC:12:7D:04:CF
            X509v3 Authority Key Identifier: 
                keyid:52:93:ED:1E:76:0A:9F:65:4F:DE:19:66:C1:D5:22:40:35:CB:A0:72

            X509v3 Basic Constraints: 
                CA:FALSE
            X509v3 Key Usage: 
                Digital Signature, Non Repudiation, Key Encipherment
    Signature Algorithm: sha256WithRSAEncryption
        3e:f5:f8:0b:4e:11:bd:00:86:1f:ce:dc:97:02:98:91:11:f5:
        65:f6:f2:8a:b2:3e:47:92:05:69:28:c9:e9:b4:f7:cf:93:d1:
        2d:81:5d:00:3c:23:be:da:70:ea:59:e1:2c:d3:25:49:ae:a6:
        95:54:c1:10:df:23:e3:fe:d6:e4:76:c7:6b:73:ad:1b:34:7c:
        e2:56:cc:c0:37:ae:c5:7a:11:20:6c:3d:05:0e:99:cd:22:6c:
        cf:59:a1:da:28:d4:65:ba:7d:2f:2b:3d:69:6d:a6:c1:ae:57:
        bf:56:64:13:79:f8:48:46:65:eb:81:67:28:0b:7b:de:47:10:
        b3:80:3c:31:d1:58:94:01:51:4a:c7:c8:1a:01:a8:af:c4:cd:
        bb:84:a5:d9:8b:b4:b9:a1:64:3e:95:d9:90:1d:d5:3f:67:cc:
        3b:ba:f5:b4:d1:33:77:ee:c2:d2:3e:7e:c5:66:6e:b7:35:4c:
        60:57:b0:b8:be:36:c8:f3:d3:95:8c:28:4a:c9:f7:27:a4:0d:
        e5:96:99:eb:f5:c8:bd:f3:84:6d:ef:02:f9:8a:36:7d:6b:5f:
        36:68:37:41:d9:74:ae:c6:78:2e:44:86:a1:ad:43:ca:fb:b5:
        3e:ba:10:23:09:02:ac:62:d1:d0:83:c8:95:b9:e3:5e:30:ff:
        5b:2b:38:fa
-----BEGIN CERTIFICATE-----
MIIDEzCCAfugAwIBAgIBAjANBgkqhkiG9w0BAQsFADBeMQswCQYDVQQGEwJVUzEP
MA0GA1UECBMGTmV2YWRhMRIwEAYDVQQHEwlMYXMgVmVnYXMxGjAYBgNVBAoTEWdp
dGh1Yi5jb20vbGliL3BxMQ4wDAYDVQQDEwVwcSBDQTAeFw0xNDEwMTExNTEwMTFa
Fw0yNDEwMDgxNTEwMTFaMGQxCzAJBgNVBAYTAlVTMQ8wDQYDVQQIEwZOZXZhZGEx
EjAQBgNVBAcTCUxhcyBWZWdhczEaMBgGA1UEChMRZ2l0aHViLmNvbS9saWIvcHEx
FDASBgNVBAMTC3BxZ29zc2xjZXJ0MIGfMA0GCSqGSIb3DQEBAQUAA4GNADCBiQKB
gQDjjAaacFRR0TQ0gznNolkPBe2N2A400JL0CU3ujHhVSST4POA0WAKy55RYwejl
u9Gv9lTBQLGQcHkNNVScjxbpwvCS5mRJOMF2+EdmxFtKtqlDzsi+bE0rlJc8VbzR
0G63U66JXEtrhkC+wa4eZM6crocKaeXIIRK+rh32Rd8WpwIDAQABo1owWDAdBgNV
HQ4EFgQUmyUxY6LYBv/L4+mW/w263BJ9BM8wHwYDVR0jBBgwFoAUUpPtHnYKn2VP
3hlmwdUiQDXLoHIwCQYDVR0TBAIwADALBgNVHQ8EBAMCBeAwDQYJKoZIhvcNAQEL
BQADggEBAD71+AtOEb0Ahh/O3JcCmJER9WX28oqyPkeSBWkoyem098+T0S2BXQA8
I77acOpZ4SzTJUmuppVUwRDfI+P+1uR2x2tzrRs0fOJWzMA3rsV6ESBsPQUOmc0i
bM9Zodoo1GW6fS8rPWltpsGuV79WZBN5+EhGZeuBZygLe95HELOAPDHRWJQBUUrH
yBoBqK/EzbuEpdmLtLmhZD6V2ZAd1T9nzDu69bTRM3fuwtI+fsVmbrc1TGBXsLi+
Nsjz05WMKErJ9yekDeWWmev1yL3zhG3vAvmKNn1rXzZoN0HZdK7GeC5EhqGtQ8r7
tT66ECMJAqxi0dCDyJW5414w/1srOPo=
-----END CERTIFICATE-----
